target datalayout = "e-m:e-p270:32:32-p271:32:32-p272:64:64-i64:64-i128:128-f80:128-n8:16:32:64-S128"
target triple = "x86_64-unknown-linux-gnu"

%"class.icu_75::RegexPattern" = type { %"class.icu_75::UObject", ptr, ptr, i32, ptr, %"class.icu_75::UnicodeString", ptr, ptr, i32, i32, i32, i32, ptr, i32, i32, i32, ptr, i32, ptr, i8, ptr }
%"class.icu_75::UObject" = type { ptr }
%"class.icu_75::UnicodeString" = type { %"class.icu_75::Replaceable", %"union.icu_75::UnicodeString::StackBufferOrFields" }
%"class.icu_75::Replaceable" = type { %"class.icu_75::UObject" }
%"union.icu_75::UnicodeString::StackBufferOrFields" = type { %struct.anon.0, [32 x i8] }
%struct.anon.0 = type { i16, i32, i32, ptr }

; Function Attrs: mustprogress uwtable
define noundef i32 @_ZNK6icu_7512RegexPattern19groupNumberFromNameERKNS_13UnicodeStringER10UErrorCode(ptr noundef nonnull align 8 dereferenceable(200) %this, ptr noundef nonnull align 8 dereferenceable(64) %groupName, ptr noundef nonnull align 4 dereferenceable(4) %status) unnamed_addr #1 align 2 {
entry:
  %retval = alloca i32, align 4
  %this.addr = alloca ptr, align 8
  %groupName.addr = alloca ptr, align 8
  %status.addr = alloca ptr, align 8
  %number = alloca i32, align 4
  store ptr %this, ptr %this.addr, align 8
  store ptr %groupName, ptr %groupName.addr, align 8
  store ptr %status, ptr %status.addr, align 8
  %this1 = load ptr, ptr %this.addr, align 8
  %0 = load ptr, ptr %status.addr, align 8
  %1 = load i32, ptr %0, align 4
  %call = call noundef signext i8 @_ZL9U_FAILURE10UErrorCode(i32 noundef %1)
  %tobool = icmp ne i8 %call, 0
  br i1 %tobool, label %if.then, label %if.end

if.then:                                          ; preds = %entry
  store i32 0, ptr %retval, align 4
  br label %return

if.end:                                           ; preds = %entry
  %fNamedCaptureMap = getelementptr inbounds %"class.icu_75::RegexPattern", ptr %this1, i32 0, i32 20
  %2 = load ptr, ptr %fNamedCaptureMap, align 8
  %tobool2 = icmp ne ptr %2, null
  br i1 %tobool2, label %cond.true, label %cond.false

cond.true:                                        ; preds = %if.end
  %fNamedCaptureMap3 = getelementptr inbounds %"class.icu_75::RegexPattern", ptr %this1, i32 0, i32 20
  %3 = load ptr, ptr %fNamedCaptureMap3, align 8
  %4 = load ptr, ptr %groupName.addr, align 8
  %call4 = call i32 @uhash_geti_75(ptr noundef %3, ptr noundef %4)
  br label %cond.end

cond.false:                                       ; preds = %if.end
  br label %cond.end

cond.end:                                         ; preds = %cond.false, %cond.true
  %cond = phi i32 [ %call4, %cond.true ], [ 0, %cond.false ]
  store i32 %cond, ptr %number, align 4
  %5 = load i32, ptr %number, align 4
  %cmp = icmp eq i32 %5, 0
  br i1 %cmp, label %if.then5, label %if.end6

if.then5:                                         ; preds = %cond.end
  %6 = load ptr, ptr %status.addr, align 8
  store i32 66325, ptr %6, align 4
  br label %if.end6

if.end6:                                          ; preds = %if.then5, %cond.end
  %7 = load i32, ptr %number, align 4
  store i32 %7, ptr %retval, align 4
  br label %return

return:                                           ; preds = %if.end6, %if.then
  %8 = load i32, ptr %retval, align 4
  ret i32 %8
}

; Function Attrs: mustprogress nounwind uwtable
define internal noundef signext i8 @_ZL9U_FAILURE10UErrorCode(i32 noundef %code) #0 {
entry:
  %code.addr = alloca i32, align 4
  store i32 %code, ptr %code.addr, align 4
  %0 = load i32, ptr %code.addr, align 4
  %cmp = icmp sgt i32 %0, 0
  %conv = zext i1 %cmp to i8
  ret i8 %conv
}

; Function Attrs: mustprogress uwtable
define noundef i32 @_ZNK6icu_7512RegexPattern19groupNumberFromNameEPKciR10UErrorCode(ptr noundef nonnull align 8 dereferenceable(200) %this, ptr noundef %groupName, i32 noundef %nameLength, ptr noundef nonnull align 4 dereferenceable(4) %status) unnamed_addr #1 align 2 personality ptr @__gxx_personality_v0 {
entry:
  %retval = alloca i32, align 4
  %this.addr = alloca ptr, align 8
  %groupName.addr = alloca ptr, align 8
  %nameLength.addr = alloca i32, align 4
  %status.addr = alloca ptr, align 8
  %name = alloca %"class.icu_75::UnicodeString", align 8
  %exn.slot = alloca ptr, align 8
  %ehselector.slot = alloca i32, align 4
  store ptr %this, ptr %this.addr, align 8
  store ptr %groupName, ptr %groupName.addr, align 8
  store i32 %nameLength, ptr %nameLength.addr, align 4
  store ptr %status, ptr %status.addr, align 8
  %this1 = load ptr, ptr %this.addr, align 8
  %0 = load ptr, ptr %status.addr, align 8
  %1 = load i32, ptr %0, align 4
  %call = call noundef signext i8 @_ZL9U_FAILURE10UErrorCode(i32 noundef %1)
  %tobool = icmp ne i8 %call, 0
  br i1 %tobool, label %if.then, label %if.end

if.then:                                          ; preds = %entry
  store i32 0, ptr %retval, align 4
  br label %return

if.end:                                           ; preds = %entry
  %2 = load ptr, ptr %groupName.addr, align 8
  %3 = load i32, ptr %nameLength.addr, align 4
  call void @_ZN6icu_7513UnicodeStringC1EPKciNS0_10EInvariantE(ptr noundef nonnull align 8 dereferenceable(64) %name, ptr noundef %2, i32 noundef %3, i32 noundef 0)
  %4 = load ptr, ptr %status.addr, align 8
  %call2 = invoke noundef i32 @_ZNK6icu_7512RegexPattern19groupNumberFromNameERKNS_13UnicodeStringER10UErrorCode(ptr noundef nonnull align 8 dereferenceable(200) %this1, ptr noundef nonnull align 8 dereferenceable(64) %name, ptr noundef nonnull align 4 dereferenceable(4) %4)
          to label %invoke.cont unwind label %lpad

invoke.cont:                                      ; preds = %if.end
  store i32 %call2, ptr %retval, align 4
  call void @_ZN6icu_7513UnicodeStringD1Ev(ptr noundef nonnull align 8 dereferenceable(64) %name) #9
  br label %return

lpad:                                             ; preds = %if.end
  %5 = landingpad { ptr, i32 }
          cleanup
  %6 = extractvalue { ptr, i32 } %5, 0
  store ptr %6, ptr %exn.slot, align 8
  %7 = extractvalue { ptr, i32 } %5, 1
  store i32 %7, ptr %ehselector.slot, align 4
  call void @_ZN6icu_7513UnicodeStringD1Ev(ptr noundef nonnull align 8 dereferenceable(64) %name) #9
  br label %eh.resume

return:                                           ; preds = %invoke.cont, %if.then
  %8 = load i32, ptr %retval, align 4
  ret i32 %8

eh.resume:                                        ; preds = %lpad
  %exn = load ptr, ptr %exn.slot, align 8
  %sel = load i32, ptr %ehselector.slot, align 4
  %lpad.val = insertvalue { ptr, i32 } poison, ptr %exn, 0
  %lpad.val3 = insertvalue { ptr, i32 } %lpad.val, i32 %sel, 1
  resume { ptr, i32 } %lpad.val3
}