; Function Attrs: mustprogress uwtable
define noundef i32 @_ZNK6icu_7512RegexPattern19groupNumberFromNameEPKciR10UErrorCode(ptr nocapture noundef nonnull readonly align 8 dereferenceable(200) %this, ptr noundef %groupName, i32 noundef %nameLength, ptr nocapture noundef nonnull align 4 dereferenceable(4) %status) unnamed_addr #1 align 2 personality ptr @__gxx_personality_v0 {
entry:
  %name = alloca %"class.icu_75::UnicodeString", align 8
  %0 = load i32, ptr %status, align 4
  %cmp.i = icmp slt i32 %0, 1
  br i1 %cmp.i, label %if.end, label %return

if.end:                                           ; preds = %entry
  call void @_ZN6icu_7513UnicodeStringC1EPKciNS0_10EInvariantE(ptr noundef nonnull align 8 dereferenceable(64) %name, ptr noundef %groupName, i32 noundef %nameLength, i32 noundef 0)
  %1 = load i32, ptr %status, align 4
  %cmp.i.i = icmp slt i32 %1, 1
  br i1 %cmp.i.i, label %if.end.i, label %invoke.cont

if.end.i:                                         ; preds = %if.end
  %fNamedCaptureMap.i = getelementptr inbounds i8, ptr %this, i64 192
  %2 = load ptr, ptr %fNamedCaptureMap.i, align 8
  %tobool2.not.i = icmp eq ptr %2, null
  br i1 %tobool2.not.i, label %if.then5.i, label %cond.end.i

cond.end.i:                                       ; preds = %if.end.i
  %call4.i3 = invoke i32 @uhash_geti_75(ptr noundef nonnull %2, ptr noundef nonnull %name)
          to label %call4.i.noexc unwind label %lpad

call4.i.noexc:                                    ; preds = %cond.end.i
  %cmp.i2 = icmp eq i32 %call4.i3, 0
  br i1 %cmp.i2, label %if.then5.i, label %invoke.cont

if.then5.i:                                       ; preds = %call4.i.noexc, %if.end.i
  store i32 66325, ptr %status, align 4
  br label %invoke.cont

invoke.cont:                                      ; preds = %if.then5.i, %call4.i.noexc, %if.end
  %retval.0.i = phi i32 [ 0, %if.end ], [ 0, %if.then5.i ], [ %call4.i3, %call4.i.noexc ]
  call void @_ZN6icu_7513UnicodeStringD1Ev(ptr noundef nonnull align 8 dereferenceable(64) %name) #11
  br label %return

lpad:                                             ; preds = %cond.end.i
  %3 = landingpad { ptr, i32 }
          cleanup
  call void @_ZN6icu_7513UnicodeStringD1Ev(ptr noundef nonnull align 8 dereferenceable(64) %name) #11
  resume { ptr, i32 } %3

return:                                           ; preds = %entry, %invoke.cont
  %retval.0 = phi i32 [ %retval.0.i, %invoke.cont ], [ 0, %entry ]
  ret i32 %retval.0
}